target datalayout = "e-m:e-p270:32:32-p271:32:32-p272:64:64-i64:64-i128:128-f80:128-n8:16:32:64-S128"
target triple = "x86_64-pc-linux-gnu"

%"class.std::shared_ptr" = type { %"class.std::__shared_ptr" }
%"class.std::__shared_ptr" = type { ptr, %"class.std::__shared_count" }
%"class.std::__shared_count" = type { ptr }
%"class.open_spiel::dou_dizhu::DouDizhuState" = type <{ %"class.open_spiel::State.base", [4 x i8], %"class.std::vector.6", i32, i32, i32, i32, i32, i32, i8, [3 x i8], i32, i32, i32, i32, i32, %"struct.std::array", %"struct.std::array.11", [4 x i8], %"class.std::vector.12", i32, %"struct.std::array.17", %"class.std::vector.18", %"struct.std::array.23", [4 x i8] }>
%"class.open_spiel::State.base" = type <{ ptr, %"class.std::shared_ptr", i32, i32, %"class.std::vector", i32 }>
%"class.std::vector" = type { %"struct.std::_Vector_base" }
%"struct.std::_Vector_base" = type { %"struct.std::_Vector_base<open_spiel::State::PlayerAction, std::allocator<open_spiel::State::PlayerAction>>::_Vector_impl" }
%"struct.std::_Vector_base<open_spiel::State::PlayerAction, std::allocator<open_spiel::State::PlayerAction>>::_Vector_impl" = type { %"struct.std::_Vector_base<open_spiel::State::PlayerAction, std::allocator<open_spiel::State::PlayerAction>>::_Vector_impl_data" }
%"struct.std::_Vector_base<open_spiel::State::PlayerAction, std::allocator<open_spiel::State::PlayerAction>>::_Vector_impl_data" = type { ptr, ptr, ptr }
%"class.std::vector.6" = type { %"struct.std::_Vector_base.7" }
%"struct.std::_Vector_base.7" = type { %"struct.std::_Vector_base<int, std::allocator<int>>::_Vector_impl" }
%"struct.std::_Vector_base<int, std::allocator<int>>::_Vector_impl" = type { %"struct.std::_Vector_base<int, std::allocator<int>>::_Vector_impl_data" }
%"struct.std::_Vector_base<int, std::allocator<int>>::_Vector_impl_data" = type { ptr, ptr, ptr }
%"struct.std::array" = type { [54 x i32] }
%"struct.std::array.11" = type { [15 x i32] }
%"class.std::vector.12" = type { %"struct.std::_Vector_base.13" }
%"struct.std::_Vector_base.13" = type { %"struct.std::_Vector_base<open_spiel::dou_dizhu::Trick, std::allocator<open_spiel::dou_dizhu::Trick>>::_Vector_impl" }
%"struct.std::_Vector_base<open_spiel::dou_dizhu::Trick, std::allocator<open_spiel::dou_dizhu::Trick>>::_Vector_impl" = type { %"struct.std::_Vector_base<open_spiel::dou_dizhu::Trick, std::allocator<open_spiel::dou_dizhu::Trick>>::_Vector_impl_data" }
%"struct.std::_Vector_base<open_spiel::dou_dizhu::Trick, std::allocator<open_spiel::dou_dizhu::Trick>>::_Vector_impl_data" = type { ptr, ptr, ptr }
%"struct.std::array.17" = type { [3 x i32] }
%"class.std::vector.18" = type { %"struct.std::_Vector_base.19" }
%"struct.std::_Vector_base.19" = type { %"struct.std::_Vector_base<double, std::allocator<double>>::_Vector_impl" }
%"struct.std::_Vector_base<double, std::allocator<double>>::_Vector_impl" = type { %"struct.std::_Vector_base<double, std::allocator<double>>::_Vector_impl_data" }
%"struct.std::_Vector_base<double, std::allocator<double>>::_Vector_impl_data" = type { ptr, ptr, ptr }
%"struct.std::array.23" = type { [3 x %"struct.std::array.11"] }

; Function Attrs: mustprogress nounwind uwtable
define linkonce_odr noundef nonnull align 4 dereferenceable(4) ptr @_ZNSt14__array_traitsIiLm3EE6_S_refERA3_Kim(ptr noundef nonnull align 4 dereferenceable(12) %0, i64 noundef %1) #6 comdat align 2 {
  %3 = alloca ptr, align 8
  %4 = alloca i64, align 8
  store ptr %0, ptr %3, align 8
  store i64 %1, ptr %4, align 8
  %5 = load ptr, ptr %3, align 8
  %6 = load i64, ptr %4, align 8
  %7 = getelementptr inbounds [3 x i32], ptr %5, i64 0, i64 %6
  ret ptr %7
}

; Function Attrs: mustprogress nounwind uwtable
define linkonce_odr noundef nonnull align 8 dereferenceable(8) ptr @_ZNSt6vectorIdSaIdEEixEm(ptr noundef nonnull align 8 dereferenceable(24) %0, i64 noundef %1) #6 comdat align 2 {
  %3 = alloca ptr, align 8
  %4 = alloca i64, align 8
  store ptr %0, ptr %3, align 8
  store i64 %1, ptr %4, align 8
  %5 = load ptr, ptr %3, align 8
  %6 = getelementptr inbounds nuw %"struct.std::_Vector_base.19", ptr %5, i32 0, i32 0
  %7 = getelementptr inbounds nuw %"struct.std::_Vector_base<double, std::allocator<double>>::_Vector_impl_data", ptr %6, i32 0, i32 0
  %8 = load ptr, ptr %7, align 8
  %9 = load i64, ptr %4, align 8
  %10 = getelementptr inbounds double, ptr %8, i64 %9
  ret ptr %10
}

; Function Attrs: mustprogress nounwind uwtable
define linkonce_odr noundef nonnull align 4 dereferenceable(4) ptr @_ZNSt5arrayIiLm3EEixEm(ptr noundef nonnull align 4 dereferenceable(12) %0, i64 noundef %1) #6 comdat align 2 {
  %3 = alloca ptr, align 8
  %4 = alloca i64, align 8
  store ptr %0, ptr %3, align 8
  store i64 %1, ptr %4, align 8
  %5 = load ptr, ptr %3, align 8
  %6 = getelementptr inbounds nuw %"struct.std::array.17", ptr %5, i32 0, i32 0
  %7 = load i64, ptr %4, align 8
  %8 = call noundef nonnull align 4 dereferenceable(4) ptr @_ZNSt14__array_traitsIiLm3EE6_S_refERA3_Kim(ptr noundef nonnull align 4 dereferenceable(12) %6, i64 noundef %7) #3
  ret ptr %8
}

; Function Attrs: mustprogress nounwind uwtable
define void @_ZN10open_spiel9dou_dizhu13DouDizhuState7ScoreUpEv(ptr noundef nonnull align 8 dereferenceable(660) %0) #6 align 2 {
  %2 = alloca ptr, align 8
  %3 = alloca i8, align 1
  %4 = alloca i32, align 4
  %5 = alloca i32, align 4
  %6 = alloca i32, align 4
  store ptr %0, ptr %2, align 8
  %7 = load ptr, ptr %2, align 8
  %8 = getelementptr inbounds nuw %"class.open_spiel::dou_dizhu::DouDizhuState", ptr %7, i32 0, i32 13
  %9 = load i32, ptr %8, align 4
  %10 = icmp eq i32 %9, -3
  br i1 %10, label %11, label %12

11:                                               ; preds = %1
  br label %114

12:                                               ; preds = %1
  store i8 0, ptr %3, align 1
  %13 = getelementptr inbounds nuw %"class.open_spiel::dou_dizhu::DouDizhuState", ptr %7, i32 0, i32 21
  %14 = getelementptr inbounds nuw %"class.open_spiel::dou_dizhu::DouDizhuState", ptr %7, i32 0, i32 13
  %15 = load i32, ptr %14, align 4
  %16 = sext i32 %15 to i64
  %17 = call noundef nonnull align 4 dereferenceable(4) ptr @_ZNSt5arrayIiLm3EEixEm(ptr noundef nonnull align 4 dereferenceable(12) %13, i64 noundef %16) #3
  %18 = load i32, ptr %17, align 4
  %19 = icmp eq i32 %18, 1
  %20 = zext i1 %19 to i32
  %21 = load i8, ptr %3, align 1
  %22 = trunc i8 %21 to i1
  %23 = zext i1 %22 to i32
  %24 = or i32 %23, %20
  %25 = icmp ne i32 %24, 0
  %26 = zext i1 %25 to i8
  store i8 %26, ptr %3, align 1
  %27 = getelementptr inbounds nuw %"class.open_spiel::dou_dizhu::DouDizhuState", ptr %7, i32 0, i32 21
  %28 = getelementptr inbounds nuw %"class.open_spiel::dou_dizhu::DouDizhuState", ptr %7, i32 0, i32 13
  %29 = load i32, ptr %28, align 4
  %30 = add nsw i32 %29, 1
  %31 = srem i32 %30, 3
  %32 = sext i32 %31 to i64
  %33 = call noundef nonnull align 4 dereferenceable(4) ptr @_ZNSt5arrayIiLm3EEixEm(ptr noundef nonnull align 4 dereferenceable(12) %27, i64 noundef %32) #3
  %34 = load i32, ptr %33, align 4
  %35 = icmp ne i32 %34, 0
  br i1 %35, label %47, label %36

36:                                               ; preds = %12
  %37 = getelementptr inbounds nuw %"class.open_spiel::dou_dizhu::DouDizhuState", ptr %7, i32 0, i32 21
  %38 = getelementptr inbounds nuw %"class.open_spiel::dou_dizhu::DouDizhuState", ptr %7, i32 0, i32 13
  %39 = load i32, ptr %38, align 4
  %40 = add nsw i32 %39, 2
  %41 = srem i32 %40, 3
  %42 = sext i32 %41 to i64
  %43 = call noundef nonnull align 4 dereferenceable(4) ptr @_ZNSt5arrayIiLm3EEixEm(ptr noundef nonnull align 4 dereferenceable(12) %37, i64 noundef %42) #3
  %44 = load i32, ptr %43, align 4
  %45 = icmp ne i32 %44, 0
  %46 = xor i1 %45, true
  br label %47

47:                                               ; preds = %36, %12
  %48 = phi i1 [ false, %12 ], [ %46, %36 ]
  %49 = zext i1 %48 to i32
  %50 = load i8, ptr %3, align 1
  %51 = trunc i8 %50 to i1
  %52 = zext i1 %51 to i32
  %53 = or i32 %52, %49
  %54 = icmp ne i32 %53, 0
  %55 = zext i1 %54 to i8
  store i8 %55, ptr %3, align 1
  %56 = getelementptr inbounds nuw %"class.open_spiel::dou_dizhu::DouDizhuState", ptr %7, i32 0, i32 4
  %57 = load i32, ptr %56, align 4
  store i32 %57, ptr %4, align 4
  store i32 0, ptr %5, align 4
  br label %58

58:                                               ; preds = %70, %47
  %59 = load i32, ptr %5, align 4
  %60 = load i8, ptr %3, align 1
  %61 = trunc i8 %60 to i1
  %62 = zext i1 %61 to i32
  %63 = getelementptr inbounds nuw %"class.open_spiel::dou_dizhu::DouDizhuState", ptr %7, i32 0, i32 20
  %64 = load i32, ptr %63, align 8
  %65 = add nsw i32 %62, %64
  %66 = icmp slt i32 %59, %65
  br i1 %66, label %67, label %73

67:                                               ; preds = %58
  %68 = load i32, ptr %4, align 4
  %69 = mul nsw i32 %68, 2
  store i32 %69, ptr %4, align 4
  br label %70

70:                                               ; preds = %67
  %71 = load i32, ptr %5, align 4
  %72 = add nsw i32 %71, 1
  store i32 %72, ptr %5, align 4
  br label %58, !llvm.loop !27

73:                                               ; preds = %58
  %74 = getelementptr inbounds nuw %"class.open_spiel::dou_dizhu::DouDizhuState", ptr %7, i32 0, i32 14
  %75 = load i32, ptr %74, align 8
  %76 = getelementptr inbounds nuw %"class.open_spiel::dou_dizhu::DouDizhuState", ptr %7, i32 0, i32 13
  %77 = load i32, ptr %76, align 4
  %78 = icmp eq i32 %75, %77
  %79 = select i1 %78, i32 1, i32 -1
  store i32 %79, ptr %6, align 4
  %80 = load i32, ptr %6, align 4
  %81 = mul nsw i32 %80, 2
  %82 = load i32, ptr %4, align 4
  %83 = mul nsw i32 %81, %82
  %84 = sitofp i32 %83 to double
  %85 = getelementptr inbounds nuw %"class.open_spiel::dou_dizhu::DouDizhuState", ptr %7, i32 0, i32 22
  %86 = getelementptr inbounds nuw %"class.open_spiel::dou_dizhu::DouDizhuState", ptr %7, i32 0, i32 13
  %87 = load i32, ptr %86, align 4
  %88 = sext i32 %87 to i64
  %89 = call noundef nonnull align 8 dereferenceable(8) ptr @_ZNSt6vectorIdSaIdEEixEm(ptr noundef nonnull align 8 dereferenceable(24) %85, i64 noundef %88) #3
  store double %84, ptr %89, align 8
  %90 = load i32, ptr %6, align 4
  %91 = sub nsw i32 0, %90
  %92 = load i32, ptr %4, align 4
  %93 = mul nsw i32 %91, %92
  %94 = sitofp i32 %93 to double
  %95 = getelementptr inbounds nuw %"class.open_spiel::dou_dizhu::DouDizhuState", ptr %7, i32 0, i32 22
  %96 = getelementptr inbounds nuw %"class.open_spiel::dou_dizhu::DouDizhuState", ptr %7, i32 0, i32 13
  %97 = load i32, ptr %96, align 4
  %98 = add nsw i32 %97, 1
  %99 = srem i32 %98, 3
  %100 = sext i32 %99 to i64
  %101 = call noundef nonnull align 8 dereferenceable(8) ptr @_ZNSt6vectorIdSaIdEEixEm(ptr noundef nonnull align 8 dereferenceable(24) %95, i64 noundef %100) #3
  store double %94, ptr %101, align 8
  %102 = load i32, ptr %6, align 4
  %103 = sub nsw i32 0, %102
  %104 = load i32, ptr %4, align 4
  %105 = mul nsw i32 %103, %104
  %106 = sitofp i32 %105 to double
  %107 = getelementptr inbounds nuw %"class.open_spiel::dou_dizhu::DouDizhuState", ptr %7, i32 0, i32 22
  %108 = getelementptr inbounds nuw %"class.open_spiel::dou_dizhu::DouDizhuState", ptr %7, i32 0, i32 13
  %109 = load i32, ptr %108, align 4
  %110 = add nsw i32 %109, 2
  %111 = srem i32 %110, 3
  %112 = sext i32 %111 to i64
  %113 = call noundef nonnull align 8 dereferenceable(8) ptr @_ZNSt6vectorIdSaIdEEixEm(ptr noundef nonnull align 8 dereferenceable(24) %107, i64 noundef %112) #3
  store double %106, ptr %113, align 8
  br label %114

114:                                              ; preds = %73, %11
  ret void
}