; Function Attrs: mustprogress nofree norecurse nosync nounwind memory(write, argmem: readwrite, inaccessiblemem: none) uwtable
define void @_ZN10open_spiel9dou_dizhu13DouDizhuState7ScoreUpEv(ptr noundef nonnull readonly align 8 captures(none) dereferenceable(660) %0) local_unnamed_addr #8 align 2 {
  %2 = getelementptr inbounds nuw i8, ptr %0, i64 124
  %3 = load i32, ptr %2, align 4
  %4 = icmp eq i32 %3, -3
  br i1 %4, label %59, label %5

5:                                                ; preds = %1
  %6 = getelementptr inbounds nuw i8, ptr %0, i64 444
  %7 = sext i32 %3 to i64
  %8 = getelementptr inbounds [3 x i32], ptr %6, i64 0, i64 %7
  %9 = load i32, ptr %8, align 4
  %10 = icmp eq i32 %9, 1
  %11 = zext i1 %10 to i32
  %12 = add nsw i32 %3, 1
  %13 = srem i32 %12, 3
  %14 = sext i32 %13 to i64
  %15 = getelementptr inbounds [3 x i32], ptr %6, i64 0, i64 %14
  %16 = load i32, ptr %15, align 4
  %.not = icmp eq i32 %16, 0
  br i1 %.not, label %17, label %24

17:                                               ; preds = %5
  %18 = add nsw i32 %3, 2
  %19 = srem i32 %18, 3
  %20 = sext i32 %19 to i64
  %21 = getelementptr inbounds [3 x i32], ptr %6, i64 0, i64 %20
  %22 = load i32, ptr %21, align 4
  %.not14 = icmp eq i32 %22, 0
  %23 = zext i1 %.not14 to i32
  br label %24

24:                                               ; preds = %17, %5
  %25 = phi i32 [ 0, %5 ], [ %23, %17 ]
  %26 = or i32 %25, %11
  %27 = getelementptr inbounds nuw i8, ptr %0, i64 92
  %28 = load i32, ptr %27, align 4
  %29 = getelementptr inbounds nuw i8, ptr %0, i64 440
  %30 = load i32, ptr %29, align 8
  %31 = add nsw i32 %30, %26
  %32 = icmp sgt i32 %31, 0
  br i1 %32, label %.lr.ph, label %._crit_edge

.lr.ph:                                           ; preds = %24, %.lr.ph
  %.016 = phi i32 [ %34, %.lr.ph ], [ 0, %24 ]
  %.01215 = phi i32 [ %33, %.lr.ph ], [ %28, %24 ]
  %33 = shl nsw i32 %.01215, 1
  %34 = add nuw nsw i32 %.016, 1
  %exitcond.not = icmp eq i32 %34, %31
  br i1 %exitcond.not, label %._crit_edge, label %.lr.ph, !llvm.loop !80

._crit_edge:                                      ; preds = %.lr.ph, %24
  %.012.lcssa = phi i32 [ %28, %24 ], [ %33, %.lr.ph ]
  %35 = getelementptr inbounds nuw i8, ptr %0, i64 128
  %36 = load i32, ptr %35, align 8
  %37 = icmp eq i32 %36, %3
  %38 = select i1 %37, i32 2, i32 -2
  %39 = mul nsw i32 %38, %.012.lcssa
  %40 = sitofp i32 %39 to double
  %41 = getelementptr inbounds nuw i8, ptr %0, i64 456
  %42 = load ptr, ptr %41, align 8
  %43 = getelementptr inbounds double, ptr %42, i64 %7
  store double %40, ptr %43, align 8
  %44 = sub nsw i32 0, %.012.lcssa
  %45 = select i1 %37, i32 %44, i32 %.012.lcssa
  %46 = sitofp i32 %45 to double
  %47 = load i32, ptr %2, align 4
  %48 = add nsw i32 %47, 1
  %49 = srem i32 %48, 3
  %50 = sext i32 %49 to i64
  %51 = load ptr, ptr %41, align 8
  %52 = getelementptr inbounds double, ptr %51, i64 %50
  store double %46, ptr %52, align 8
  %53 = load i32, ptr %2, align 4
  %54 = add nsw i32 %53, 2
  %55 = srem i32 %54, 3
  %56 = sext i32 %55 to i64
  %57 = load ptr, ptr %41, align 8
  %58 = getelementptr inbounds double, ptr %57, i64 %56
  store double %46, ptr %58, align 8
  br label %59

59:                                               ; preds = %1, %._crit_edge
  ret void
}